target datalayout = "e-m:e-p270:32:32-p271:32:32-p272:64:64-i64:64-i128:128-f80:128-n8:16:32:64-S128"
target triple = "x86_64-pc-linux-gnu"

%struct.png_struct_def = type { [1 x %struct.__jmp_buf_tag], ptr, ptr, i64, ptr, ptr, ptr, ptr, ptr, ptr, ptr, ptr, ptr, i8, i8, i32, i32, i32, i32, %struct.z_stream_s, ptr, i32, i32, i32, i32, i32, i32, i32, i32, i32, i32, i32, i32, i32, i32, i32, i32, i32, i32, i32, i32, i64, i32, i32, i32, ptr, ptr, ptr, ptr, i64, i32, i32, ptr, i16, i32, i16, i8, i8, i8, i8, i8, i8, i8, i8, i8, i8, i8, i8, i8, i8, i8, i16, i8, i32, %struct.png_color_16_struct, %struct.png_color_16_struct, ptr, i32, i32, i32, i32, ptr, ptr, ptr, ptr, ptr, ptr, %struct.png_color_8_struct, %struct.png_color_8_struct, ptr, %struct.png_color_16_struct, ptr, ptr, ptr, ptr, ptr, ptr, ptr, ptr, ptr, i32, i32, i64, i64, i64, i64, i32, i32, ptr, ptr, i32, [29 x i8], i32, ptr, ptr, i32, i32, ptr, i8, i8, i16, i16, ptr, i32, i8, ptr, ptr, ptr, ptr, ptr, ptr, ptr, i8, i32, i32, i32, i64, %struct.png_unknown_chunk_t, i64, ptr, i64, i32, i32, ptr, [4 x ptr], %struct.png_colorspace }
%struct.__jmp_buf_tag = type { [8 x i64], i32, %struct.__sigset_t }
%struct.__sigset_t = type { [16 x i64] }
%struct.z_stream_s = type { ptr, i32, i64, ptr, i32, i64, ptr, ptr, ptr, ptr, ptr, i32, i64, i64 }
%struct.png_color_8_struct = type { i8, i8, i8, i8, i8 }
%struct.png_color_16_struct = type { i8, i16, i16, i16, i16 }
%struct.png_unknown_chunk_t = type { [5 x i8], ptr, i64, i8 }
%struct.png_colorspace = type { i32, %struct.png_xy, %struct.png_XYZ, i16, i16 }
%struct.png_xy = type { i32, i32, i32, i32, i32, i32, i32, i32 }
%struct.png_XYZ = type { i32, i32, i32, i32, i32, i32, i32, i32, i32 }

@.str.10 = private unnamed_addr constant [49 x i8] c"Only compression windows <= 32k supported by PNG\00", align 1
@.str.11 = private unnamed_addr constant [49 x i8] c"Only compression windows >= 256 supported by PNG\00", align 1

; Function Attrs: nounwind uwtable
define void @png_set_compression_window_bits(ptr noalias noundef %0, i32 noundef %1) #0 {
  %3 = alloca ptr, align 8
  %4 = alloca i32, align 4
  store ptr %0, ptr %3, align 8
  store i32 %1, ptr %4, align 4
  %5 = load ptr, ptr %3, align 8
  %6 = icmp eq ptr %5, null
  br i1 %6, label %7, label %8

7:                                                ; preds = %2
  br label %23

8:                                                ; preds = %2
  %9 = load i32, ptr %4, align 4
  %10 = icmp sgt i32 %9, 15
  br i1 %10, label %11, label %13

11:                                               ; preds = %8
  %12 = load ptr, ptr %3, align 8
  call void @png_warning(ptr noundef %12, ptr noundef @.str.10)
  store i32 15, ptr %4, align 4
  br label %19

13:                                               ; preds = %8
  %14 = load i32, ptr %4, align 4
  %15 = icmp slt i32 %14, 8
  br i1 %15, label %16, label %18

16:                                               ; preds = %13
  %17 = load ptr, ptr %3, align 8
  call void @png_warning(ptr noundef %17, ptr noundef @.str.11)
  store i32 8, ptr %4, align 4
  br label %18

18:                                               ; preds = %16, %13
  br label %19

19:                                               ; preds = %18, %11
  %20 = load i32, ptr %4, align 4
  %21 = load ptr, ptr %3, align 8
  %22 = getelementptr inbounds %struct.png_struct_def, ptr %21, i32 0, i32 24
  store i32 %20, ptr %22, align 4
  br label %23

23:                                               ; preds = %19, %7
  ret void
}